target datalayout = "e-m:e-p270:32:32-p271:32:32-p272:64:64-i64:64-i128:128-f80:128-n8:16:32:64-S128"
target triple = "x86_64-pc-linux-gnu"

%struct._zend_refcounted_h = type { i32, %union.anon.3 }
%union.anon.3 = type { i32 }
%struct._zend_ini_entry = type { ptr, ptr, ptr, ptr, ptr, ptr, ptr, ptr, i32, i8, i8, i8 }
%struct._zend_string = type { %struct._zend_refcounted_h, i64, i64, [1 x i8] }

@zend_write = external global ptr, align 8
@zend_printf = external global ptr, align 8
@.str.10 = private unnamed_addr constant [10 x i8] c"Unlimited\00", align 1
@.str.11 = private unnamed_addr constant [3 x i8] c"%s\00", align 1

; Function Attrs: nounwind uwtable
define void @display_link_numbers(ptr noundef %0, i32 noundef %1) #0 {
  %3 = alloca ptr, align 8
  %4 = alloca i32, align 4
  %5 = alloca ptr, align 8
  store ptr %0, ptr %3, align 8
  store i32 %1, ptr %4, align 4
  %6 = load i32, ptr %4, align 4
  %7 = icmp eq i32 %6, 1
  br i1 %7, label %8, label %20

8:                                                ; preds = %2
  %9 = load ptr, ptr %3, align 8
  %10 = getelementptr inbounds %struct._zend_ini_entry, ptr %9, i32 0, i32 11
  %11 = load i8, ptr %10, align 2
  %12 = zext i8 %11 to i32
  %13 = icmp ne i32 %12, 0
  br i1 %13, label %14, label %20

14:                                               ; preds = %8
  %15 = load ptr, ptr %3, align 8
  %16 = getelementptr inbounds %struct._zend_ini_entry, ptr %15, i32 0, i32 6
  %17 = load ptr, ptr %16, align 8
  %18 = getelementptr inbounds %struct._zend_string, ptr %17, i32 0, i32 3
  %19 = getelementptr inbounds [1 x i8], ptr %18, i64 0, i64 0
  store ptr %19, ptr %5, align 8
  br label %33

20:                                               ; preds = %8, %2
  %21 = load ptr, ptr %3, align 8
  %22 = getelementptr inbounds %struct._zend_ini_entry, ptr %21, i32 0, i32 5
  %23 = load ptr, ptr %22, align 8
  %24 = icmp ne ptr %23, null
  br i1 %24, label %25, label %31

25:                                               ; preds = %20
  %26 = load ptr, ptr %3, align 8
  %27 = getelementptr inbounds %struct._zend_ini_entry, ptr %26, i32 0, i32 5
  %28 = load ptr, ptr %27, align 8
  %29 = getelementptr inbounds %struct._zend_string, ptr %28, i32 0, i32 3
  %30 = getelementptr inbounds [1 x i8], ptr %29, i64 0, i64 0
  store ptr %30, ptr %5, align 8
  br label %32

31:                                               ; preds = %20
  store ptr null, ptr %5, align 8
  br label %32

32:                                               ; preds = %31, %25
  br label %33

33:                                               ; preds = %32, %14
  %34 = load ptr, ptr %5, align 8
  %35 = icmp ne ptr %34, null
  br i1 %35, label %36, label %48

36:                                               ; preds = %33
  %37 = load ptr, ptr %5, align 8
  %38 = call i32 @atoi(ptr noundef %37) #16
  %39 = icmp eq i32 %38, -1
  br i1 %39, label %40, label %43

40:                                               ; preds = %36
  %41 = load ptr, ptr @zend_write, align 8
  %42 = call i64 %41(ptr noundef @.str.10, i64 noundef 9)
  br label %47

43:                                               ; preds = %36
  %44 = load ptr, ptr @zend_printf, align 8
  %45 = load ptr, ptr %5, align 8
  %46 = call i64 (ptr, ...) %44(ptr noundef @.str.11, ptr noundef %45)
  br label %47

47:                                               ; preds = %43, %40
  br label %48

48:                                               ; preds = %47, %33
  ret void
}