; Function Attrs: nounwind uwtable
define void @display_link_numbers(ptr nocapture noundef readonly %0, i32 noundef %1) local_unnamed_addr #0 {
  %3 = icmp eq i32 %1, 1
  br i1 %3, label %4, label %10

4:                                                ; preds = %2
  %5 = getelementptr inbounds i8, ptr %0, i64 70
  %6 = load i8, ptr %5, align 2
  %.not = icmp eq i8 %6, 0
  br i1 %.not, label %10, label %7

7:                                                ; preds = %4
  %8 = getelementptr inbounds i8, ptr %0, i64 48
  %9 = load ptr, ptr %8, align 8
  br label %13

10:                                               ; preds = %4, %2
  %11 = getelementptr inbounds i8, ptr %0, i64 40
  %12 = load ptr, ptr %11, align 8
  %.not8 = icmp eq ptr %12, null
  br i1 %.not8, label %22, label %13

13:                                               ; preds = %7, %10
  %.pn = phi ptr [ %12, %10 ], [ %9, %7 ]
  %.0.ph = getelementptr inbounds i8, ptr %.pn, i64 24
  %14 = tail call i32 @atoi(ptr nocapture noundef nonnull %.0.ph) #22
  %15 = icmp eq i32 %14, -1
  br i1 %15, label %16, label %19

16:                                               ; preds = %13
  %17 = load ptr, ptr @zend_write, align 8
  %18 = tail call i64 %17(ptr noundef nonnull @.str.10, i64 noundef 9) #20
  br label %22

19:                                               ; preds = %13
  %20 = load ptr, ptr @zend_printf, align 8
  %21 = tail call i64 (ptr, ...) %20(ptr noundef nonnull @.str.11, ptr noundef nonnull %.0.ph) #20
  br label %22

22:                                               ; preds = %10, %16, %19
  ret void
}